; Function Attrs: nounwind uwtable
define internal void @CustomTeardown(ptr noundef readonly captures(none) %0) #1 {
  %2 = getelementptr inbounds nuw i8, ptr %0, i64 56
  %3 = load ptr, ptr %2, align 8, !tbaa !13
  %4 = getelementptr inbounds nuw i8, ptr %3, i64 80
  %5 = load ptr, ptr %4, align 8, !tbaa !30
  tail call void @WebPSafeFree(ptr noundef %5) #6
  store ptr null, ptr %4, align 8, !tbaa !30
  ret void
}